; Function Attrs: mustprogress uwtable
define void @_ZN32pxrInternal_v0_24__pxrReserved__8TsSpline16SetExtrapolationENS_19TsExtrapolationTypeES1_(ptr nocapture noundef nonnull align 8 dereferenceable(16) %0, i32 noundef %1, i32 noundef %2) local_unnamed_addr #3 align 2 {
  %4 = alloca %"struct.std::pair", align 4
  tail call void @_ZN32pxrInternal_v0_24__pxrReserved__8TsSpline7_DetachEv(ptr noundef nonnull align 8 dereferenceable(16) %0)
  %5 = load ptr, ptr %0, align 8
  store i32 %1, ptr %4, align 4
  %6 = getelementptr inbounds nuw i8, ptr %4, i64 4
  store i32 %2, ptr %6, align 4
  call void @_ZN32pxrInternal_v0_24__pxrReserved__18TsSpline_KeyFrames16SetExtrapolationERKSt4pairINS_19TsExtrapolationTypeES2_E(ptr noundef nonnull align 8 dereferenceable(136) %5, ptr noundef nonnull align 4 dereferenceable(8) %4)
  ret void
}